; Function Attrs: nounwind uwtable
define internal range(i32 -1, 1) i32 @H5D__none_idx_delete(ptr noundef readonly captures(none) %0) #0 {
  %2 = load i8, ptr @H5D_init_g, align 1, !tbaa !3, !range !7, !noundef !8
  %3 = trunc nuw i8 %2 to i1
  %4 = load i8, ptr @H5_libterm_g, align 1, !range !7
  %5 = trunc nuw i8 %4 to i1
  %6 = xor i1 %5, true
  %7 = select i1 %3, i1 true, i1 %6
  br i1 %7, label %8, label %31, !prof !9

8:                                                ; preds = %1
  %9 = getelementptr inbounds nuw i8, ptr %0, i64 16
  %10 = load ptr, ptr %9, align 8, !tbaa !10
  %11 = getelementptr inbounds nuw i8, ptr %10, i64 160
  %12 = load i64, ptr %11, align 8, !tbaa !17
  %13 = getelementptr inbounds nuw i8, ptr %10, i64 148
  %14 = load i32, ptr %13, align 4, !tbaa !21
  %15 = zext i32 %14 to i64
  %16 = mul i64 %12, %15
  %17 = load ptr, ptr %0, align 8, !tbaa !22
  %18 = getelementptr inbounds nuw i8, ptr %0, i64 24
  %19 = load ptr, ptr %18, align 8, !tbaa !24
  %20 = getelementptr inbounds nuw i8, ptr %19, i64 8
  %21 = load i64, ptr %20, align 8, !tbaa !25
  %22 = tail call i32 @H5MF_xfree(ptr noundef %17, i32 noundef 3, i64 noundef %21, i64 noundef %16) #9
  %23 = icmp slt i32 %22, 0
  br i1 %23, label %24, label %28

24:                                               ; preds = %8
  %25 = load i64, ptr @H5E_DATASET_g, align 8, !tbaa !23
  %26 = load i64, ptr @H5E_CANTFREE_g, align 8, !tbaa !23
  %27 = tail call i32 (ptr, ptr, i32, i64, i64, ptr, ...) @H5E_printf_stack(ptr noundef nonnull @.str, ptr noundef nonnull @__func__.H5D__none_idx_delete, i32 noundef 420, i64 noundef %25, i64 noundef %26, ptr noundef nonnull @.str.3) #9
  br label %31

28:                                               ; preds = %8
  %29 = load ptr, ptr %18, align 8, !tbaa !24
  %30 = getelementptr inbounds nuw i8, ptr %29, i64 8
  store i64 -1, ptr %30, align 8, !tbaa !25
  br label %31

31:                                               ; preds = %24, %28, %1
  %.0 = phi i32 [ -1, %24 ], [ 0, %28 ], [ 0, %1 ]
  ret i32 %.0
}